target datalayout = "e-m:e-p270:32:32-p271:32:32-p272:64:64-i64:64-i128:128-f80:128-n8:16:32:64-S128"
target triple = "x86_64-pc-linux-gnu"

%struct.darktable_t = type { %struct.dt_codepath_t, i32, i32, ptr, ptr, ptr, ptr, ptr, ptr, ptr, ptr, ptr, ptr, ptr, ptr, ptr, ptr, ptr, ptr, ptr, ptr, ptr, ptr, ptr, ptr, ptr, ptr, ptr, ptr, ptr, [64 x %struct.dt_pthread_mutex_t], %struct.dt_pthread_mutex_t, %struct.dt_pthread_mutex_t, %struct.dt_pthread_mutex_t, %struct.dt_pthread_mutex_t, %struct.dt_pthread_mutex_t, ptr, ptr, ptr, ptr, ptr, ptr, ptr, ptr, ptr, ptr, ptr, ptr, ptr, %struct.dt_lua_state_t, ptr, double, ptr, i32, [47 x i32], i32, i32, ptr, ptr, %struct.dt_sys_resources_t, %struct.dt_backthumb_t, %struct.dt_gimp_t }
%struct.dt_codepath_t = type { i8, [3 x i8] }
%struct.dt_pthread_mutex_t = type { %union.pthread_mutex_t }
%union.pthread_mutex_t = type { %struct.__pthread_mutex_s }
%struct.__pthread_mutex_s = type { i32, i32, i32, i32, i32, i16, i16, %struct.__pthread_internal_list }
%struct.__pthread_internal_list = type { ptr, ptr }
%struct.dt_lua_state_t = type { i32 }
%struct.dt_sys_resources_t = type { i64, i64, ptr, ptr, i32 }
%struct.dt_backthumb_t = type { double, double, i32, i32, i32, i32 }
%struct.dt_gimp_t = type { i32, ptr, ptr, i32, i32 }

@darktable = external global %struct.darktable_t, align 8
@.str = private unnamed_addr constant [41 x i8] c"[sql] %s:%d, function %s(): prepare \22%s\22\00", align 1
@.str.1 = private unnamed_addr constant [115 x i8] c"generated/home/dtcxzyw/WorkSpace/Projects/compilers/llvm-opt-benchmark/bench/darktable/darktable/src/common/tags.c\00", align 1
@stderr = external global ptr, align 8
@.str.3 = private unnamed_addr constant [53 x i8] c"sqlite3 error: %s:%d, function %s(), query \22%s\22: %s\0A\00", align 1
@.str.14 = private unnamed_addr constant [39 x i8] c"DELETE FROM data.tags WHERE id IN (%s)\00", align 1
@__FUNCTION__.dt_tag_delete_tag_batch = private unnamed_addr constant [24 x i8] c"dt_tag_delete_tag_batch\00", align 1
@.str.15 = private unnamed_addr constant [51 x i8] c"DELETE FROM main.tagged_images WHERE tagid IN (%s)\00", align 1

; Function Attrs: nounwind uwtable
define void @dt_tag_delete_tag_batch(ptr noundef %0) #0 {
  %2 = alloca ptr, align 8
  %3 = alloca ptr, align 8
  %4 = alloca ptr, align 8
  %5 = alloca i32, align 4
  %6 = alloca i32, align 4
  store ptr %0, ptr %2, align 8, !tbaa !6
  call void @llvm.lifetime.start.p0(i64 8, ptr %3) #8
  call void @llvm.lifetime.start.p0(i64 8, ptr %4) #8
  %7 = load ptr, ptr %2, align 8, !tbaa !6
  %8 = call noalias ptr (ptr, ...) @g_strdup_printf(ptr noundef @.str.14, ptr noundef %7)
  store ptr %8, ptr %4, align 8, !tbaa !6
  br label %9

9:                                                ; preds = %1
  br label %10

10:                                               ; preds = %9
  %11 = load i32, ptr getelementptr inbounds nuw (%struct.darktable_t, ptr @darktable, i32 0, i32 2), align 8, !tbaa !14
  %12 = and i32 256, %11
  %13 = icmp ne i32 %12, 0
  br i1 %13, label %14, label %21

14:                                               ; preds = %10
  %15 = load i32, ptr getelementptr inbounds nuw (%struct.darktable_t, ptr @darktable, i32 0, i32 2), align 8, !tbaa !14
  %16 = xor i32 %15, -1
  %17 = and i32 0, %16
  %18 = icmp ne i32 %17, 0
  br i1 %18, label %21, label %19

19:                                               ; preds = %14
  %20 = load ptr, ptr %4, align 8, !tbaa !6
  call void (ptr, ...) @dt_print_ext(ptr noundef @.str, ptr noundef @.str.1, i32 noundef 275, ptr noundef @__FUNCTION__.dt_tag_delete_tag_batch, ptr noundef %20)
  br label %21

21:                                               ; preds = %19, %14, %10
  br label %22

22:                                               ; preds = %21
  br label %23

23:                                               ; preds = %22
  call void @llvm.lifetime.start.p0(i64 4, ptr %5) #8
  %24 = load ptr, ptr getelementptr inbounds nuw (%struct.darktable_t, ptr @darktable, i32 0, i32 18), align 8, !tbaa !51
  %25 = call ptr @dt_database_get(ptr noundef %24)
  %26 = load ptr, ptr %4, align 8, !tbaa !6
  %27 = call i32 @sqlite3_prepare_v2(ptr noundef %25, ptr noundef %26, i32 noundef -1, ptr noundef %3, ptr noundef null)
  store i32 %27, ptr %5, align 4, !tbaa !52
  %28 = load i32, ptr %5, align 4, !tbaa !52
  %29 = icmp ne i32 %28, 0
  br i1 %29, label %30, label %37

30:                                               ; preds = %23
  %31 = load ptr, ptr @stderr, align 8, !tbaa !53
  %32 = load ptr, ptr %4, align 8, !tbaa !6
  %33 = load ptr, ptr getelementptr inbounds nuw (%struct.darktable_t, ptr @darktable, i32 0, i32 18), align 8, !tbaa !51
  %34 = call ptr @dt_database_get(ptr noundef %33)
  %35 = call ptr @sqlite3_errmsg(ptr noundef %34)
  %36 = call i32 (ptr, ptr, ...) @fprintf(ptr noundef %31, ptr noundef @.str.3, ptr noundef @.str.1, i32 noundef 275, ptr noundef @__FUNCTION__.dt_tag_delete_tag_batch, ptr noundef %32, ptr noundef %35) #8
  br label %37

37:                                               ; preds = %30, %23
  call void @llvm.lifetime.end.p0(i64 4, ptr %5) #8
  br label %38

38:                                               ; preds = %37
  br label %39

39:                                               ; preds = %38
  %40 = load ptr, ptr %3, align 8, !tbaa !55
  %41 = call i32 @sqlite3_step(ptr noundef %40)
  %42 = load ptr, ptr %3, align 8, !tbaa !55
  %43 = call i32 @sqlite3_finalize(ptr noundef %42)
  %44 = load ptr, ptr %4, align 8, !tbaa !6
  call void @g_free(ptr noundef %44)
  %45 = load ptr, ptr %2, align 8, !tbaa !6
  %46 = call noalias ptr (ptr, ...) @g_strdup_printf(ptr noundef @.str.15, ptr noundef %45)
  store ptr %46, ptr %4, align 8, !tbaa !6
  br label %47

47:                                               ; preds = %39
  br label %48

48:                                               ; preds = %47
  %49 = load i32, ptr getelementptr inbounds nuw (%struct.darktable_t, ptr @darktable, i32 0, i32 2), align 8, !tbaa !14
  %50 = and i32 256, %49
  %51 = icmp ne i32 %50, 0
  br i1 %51, label %52, label %59

52:                                               ; preds = %48
  %53 = load i32, ptr getelementptr inbounds nuw (%struct.darktable_t, ptr @darktable, i32 0, i32 2), align 8, !tbaa !14
  %54 = xor i32 %53, -1
  %55 = and i32 0, %54
  %56 = icmp ne i32 %55, 0
  br i1 %56, label %59, label %57

57:                                               ; preds = %52
  %58 = load ptr, ptr %4, align 8, !tbaa !6
  call void (ptr, ...) @dt_print_ext(ptr noundef @.str, ptr noundef @.str.1, i32 noundef 281, ptr noundef @__FUNCTION__.dt_tag_delete_tag_batch, ptr noundef %58)
  br label %59

59:                                               ; preds = %57, %52, %48
  br label %60

60:                                               ; preds = %59
  br label %61

61:                                               ; preds = %60
  call void @llvm.lifetime.start.p0(i64 4, ptr %6) #8
  %62 = load ptr, ptr getelementptr inbounds nuw (%struct.darktable_t, ptr @darktable, i32 0, i32 18), align 8, !tbaa !51
  %63 = call ptr @dt_database_get(ptr noundef %62)
  %64 = load ptr, ptr %4, align 8, !tbaa !6
  %65 = call i32 @sqlite3_prepare_v2(ptr noundef %63, ptr noundef %64, i32 noundef -1, ptr noundef %3, ptr noundef null)
  store i32 %65, ptr %6, align 4, !tbaa !52
  %66 = load i32, ptr %6, align 4, !tbaa !52
  %67 = icmp ne i32 %66, 0
  br i1 %67, label %68, label %75

68:                                               ; preds = %61
  %69 = load ptr, ptr @stderr, align 8, !tbaa !53
  %70 = load ptr, ptr %4, align 8, !tbaa !6
  %71 = load ptr, ptr getelementptr inbounds nuw (%struct.darktable_t, ptr @darktable, i32 0, i32 18), align 8, !tbaa !51
  %72 = call ptr @dt_database_get(ptr noundef %71)
  %73 = call ptr @sqlite3_errmsg(ptr noundef %72)
  %74 = call i32 (ptr, ptr, ...) @fprintf(ptr noundef %69, ptr noundef @.str.3, ptr noundef @.str.1, i32 noundef 281, ptr noundef @__FUNCTION__.dt_tag_delete_tag_batch, ptr noundef %70, ptr noundef %73) #8
  br label %75

75:                                               ; preds = %68, %61
  call void @llvm.lifetime.end.p0(i64 4, ptr %6) #8
  br label %76

76:                                               ; preds = %75
  br label %77

77:                                               ; preds = %76
  %78 = load ptr, ptr %3, align 8, !tbaa !55
  %79 = call i32 @sqlite3_step(ptr noundef %78)
  %80 = load ptr, ptr %3, align 8, !tbaa !55
  %81 = call i32 @sqlite3_finalize(ptr noundef %80)
  %82 = load ptr, ptr %4, align 8, !tbaa !6
  call void @g_free(ptr noundef %82)
  call void @dt_set_darktable_tags()
  call void @llvm.lifetime.end.p0(i64 8, ptr %4) #8
  call void @llvm.lifetime.end.p0(i64 8, ptr %3) #8
  ret void
}