; Function Attrs: nounwind uwtable
define void @dt_tag_delete_tag_batch(ptr noundef %0) local_unnamed_addr #0 {
  %2 = alloca ptr, align 8
  call void @llvm.lifetime.start.p0(i64 8, ptr nonnull %2) #11
  %3 = tail call noalias ptr (ptr, ...) @g_strdup_printf(ptr noundef nonnull @.str.14, ptr noundef %0) #11
  %4 = load i32, ptr getelementptr inbounds nuw (i8, ptr @darktable, i64 8), align 8, !tbaa !9
  %5 = and i32 %4, 256
  %.not = icmp eq i32 %5, 0
  br i1 %.not, label %7, label %6

6:                                                ; preds = %1
  tail call void (ptr, ...) @dt_print_ext(ptr noundef nonnull @.str, ptr noundef nonnull @.str.1, i32 noundef 275, ptr noundef nonnull @__FUNCTION__.dt_tag_delete_tag_batch, ptr noundef %3) #11
  br label %7

7:                                                ; preds = %6, %1
  %8 = load ptr, ptr getelementptr inbounds nuw (i8, ptr @darktable, i64 136), align 8, !tbaa !49
  %9 = tail call ptr @dt_database_get(ptr noundef %8) #11
  %10 = call i32 @sqlite3_prepare_v2(ptr noundef %9, ptr noundef %3, i32 noundef -1, ptr noundef nonnull %2, ptr noundef null) #11
  %.not11 = icmp eq i32 %10, 0
  br i1 %.not11, label %17, label %11

11:                                               ; preds = %7
  %12 = load ptr, ptr @stderr, align 8, !tbaa !50
  %13 = load ptr, ptr getelementptr inbounds nuw (i8, ptr @darktable, i64 136), align 8, !tbaa !49
  %14 = call ptr @dt_database_get(ptr noundef %13) #11
  %15 = call ptr @sqlite3_errmsg(ptr noundef %14) #11
  %16 = call i32 (ptr, ptr, ...) @fprintf(ptr noundef %12, ptr noundef nonnull @.str.3, ptr noundef nonnull @.str.1, i32 noundef 275, ptr noundef nonnull @__FUNCTION__.dt_tag_delete_tag_batch, ptr noundef %3, ptr noundef %15) #12
  br label %17

17:                                               ; preds = %11, %7
  %18 = load ptr, ptr %2, align 8, !tbaa !52
  %19 = call i32 @sqlite3_step(ptr noundef %18) #11
  %20 = load ptr, ptr %2, align 8, !tbaa !52
  %21 = call i32 @sqlite3_finalize(ptr noundef %20) #11
  call void @g_free(ptr noundef %3) #11
  %22 = call noalias ptr (ptr, ...) @g_strdup_printf(ptr noundef nonnull @.str.15, ptr noundef %0) #11
  %23 = load i32, ptr getelementptr inbounds nuw (i8, ptr @darktable, i64 8), align 8, !tbaa !9
  %24 = and i32 %23, 256
  %.not12 = icmp eq i32 %24, 0
  br i1 %.not12, label %26, label %25

25:                                               ; preds = %17
  call void (ptr, ...) @dt_print_ext(ptr noundef nonnull @.str, ptr noundef nonnull @.str.1, i32 noundef 281, ptr noundef nonnull @__FUNCTION__.dt_tag_delete_tag_batch, ptr noundef %22) #11
  br label %26

26:                                               ; preds = %25, %17
  %27 = load ptr, ptr getelementptr inbounds nuw (i8, ptr @darktable, i64 136), align 8, !tbaa !49
  %28 = call ptr @dt_database_get(ptr noundef %27) #11
  %29 = call i32 @sqlite3_prepare_v2(ptr noundef %28, ptr noundef %22, i32 noundef -1, ptr noundef nonnull %2, ptr noundef null) #11
  %.not13 = icmp eq i32 %29, 0
  br i1 %.not13, label %36, label %30

30:                                               ; preds = %26
  %31 = load ptr, ptr @stderr, align 8, !tbaa !50
  %32 = load ptr, ptr getelementptr inbounds nuw (i8, ptr @darktable, i64 136), align 8, !tbaa !49
  %33 = call ptr @dt_database_get(ptr noundef %32) #11
  %34 = call ptr @sqlite3_errmsg(ptr noundef %33) #11
  %35 = call i32 (ptr, ptr, ...) @fprintf(ptr noundef %31, ptr noundef nonnull @.str.3, ptr noundef nonnull @.str.1, i32 noundef 281, ptr noundef nonnull @__FUNCTION__.dt_tag_delete_tag_batch, ptr noundef %22, ptr noundef %34) #12
  br label %36

36:                                               ; preds = %30, %26
  %37 = load ptr, ptr %2, align 8, !tbaa !52
  %38 = call i32 @sqlite3_step(ptr noundef %37) #11
  %39 = load ptr, ptr %2, align 8, !tbaa !52
  %40 = call i32 @sqlite3_finalize(ptr noundef %39) #11
  call void @g_free(ptr noundef %22) #11
  call void @dt_set_darktable_tags()
  call void @llvm.lifetime.end.p0(i64 8, ptr nonnull %2) #11
  ret void
}